target datalayout = "e-m:e-p270:32:32-p271:32:32-p272:64:64-i64:64-i128:128-f80:128-n8:16:32:64-S128"
target triple = "x86_64-pc-linux-gnu"

%"class.btInverseDynamicsBullet3::MultiBodyTree" = type { i8, i8, i8, ptr, ptr }

@.str = private unnamed_addr constant [17 x i8] c"b3Error[%s,%d]:\0A\00", align 1
@.str.1 = private unnamed_addr constant [137 x i8] c"generated/home/dtcxzyw/WorkSpace/Projects/compilers/llvm-opt-benchmark/bench/bullet3/bullet3/src/BulletInverseDynamics/MultiBodyTree.cpp\00", align 1
@.str.2 = private unnamed_addr constant [33 x i8] c"system has not been initialized\0A\00", align 1
@.str.3 = private unnamed_addr constant [39 x i8] c"error in inverse dynamics calculation\0A\00", align 1

; Function Attrs: mustprogress uwtable
define dso_local noundef i32 @_ZN24btInverseDynamicsBullet313MultiBodyTree24calculateInverseDynamicsERKNS_4vecxES3_S3_PS1_(ptr noundef nonnull align 8 dereferenceable(24) %0, ptr noundef nonnull align 8 dereferenceable(32) %1, ptr noundef nonnull align 8 dereferenceable(32) %2, ptr noundef nonnull align 8 dereferenceable(32) %3, ptr noundef %4) #2 align 2 {
  %6 = alloca i32, align 4
  %7 = alloca ptr, align 8
  %8 = alloca ptr, align 8
  %9 = alloca ptr, align 8
  %10 = alloca ptr, align 8
  %11 = alloca ptr, align 8
  store ptr %0, ptr %7, align 8, !tbaa !12
  store ptr %1, ptr %8, align 8, !tbaa !59
  store ptr %2, ptr %9, align 8, !tbaa !59
  store ptr %3, ptr %10, align 8, !tbaa !59
  store ptr %4, ptr %11, align 8, !tbaa !59
  %12 = load ptr, ptr %7, align 8
  %13 = getelementptr inbounds nuw %"class.btInverseDynamicsBullet3::MultiBodyTree", ptr %12, i32 0, i32 0
  %14 = load i8, ptr %13, align 8, !tbaa !14, !range !29, !noundef !30
  %15 = trunc i8 %14 to i1
  %16 = zext i1 %15 to i32
  %17 = icmp eq i32 0, %16
  br i1 %17, label %18, label %21

18:                                               ; preds = %5
  br label %19

19:                                               ; preds = %18
  call void (ptr, ...) @b3OutputErrorMessageVarArgsInternal(ptr noundef @.str, ptr noundef @.str.1, i32 noundef 103)
  call void (ptr, ...) @b3OutputErrorMessageVarArgsInternal(ptr noundef @.str.2)
  br label %20

20:                                               ; preds = %19
  store i32 -1, ptr %6, align 4
  br label %34

21:                                               ; preds = %5
  %22 = getelementptr inbounds nuw %"class.btInverseDynamicsBullet3::MultiBodyTree", ptr %12, i32 0, i32 3
  %23 = load ptr, ptr %22, align 8, !tbaa !21
  %24 = load ptr, ptr %8, align 8, !tbaa !59
  %25 = load ptr, ptr %9, align 8, !tbaa !59
  %26 = load ptr, ptr %10, align 8, !tbaa !59
  %27 = load ptr, ptr %11, align 8, !tbaa !59
  %28 = call noundef i32 @_ZN24btInverseDynamicsBullet313MultiBodyTree13MultiBodyImpl24calculateInverseDynamicsERKNS_4vecxES4_S4_PS2_(ptr noundef nonnull align 8 dereferenceable(400) %23, ptr noundef nonnull align 8 dereferenceable(32) %24, ptr noundef nonnull align 8 dereferenceable(32) %25, ptr noundef nonnull align 8 dereferenceable(32) %26, ptr noundef %27)
  %29 = icmp eq i32 -1, %28
  br i1 %29, label %30, label %33

30:                                               ; preds = %21
  br label %31

31:                                               ; preds = %30
  call void (ptr, ...) @b3OutputErrorMessageVarArgsInternal(ptr noundef @.str, ptr noundef @.str.1, i32 noundef 108)
  call void (ptr, ...) @b3OutputErrorMessageVarArgsInternal(ptr noundef @.str.3)
  br label %32

32:                                               ; preds = %31
  store i32 -1, ptr %6, align 4
  br label %34

33:                                               ; preds = %21
  store i32 0, ptr %6, align 4
  br label %34

34:                                               ; preds = %33, %32, %20
  %35 = load i32, ptr %6, align 4
  ret i32 %35
}