; Function Attrs: mustprogress uwtable
define dso_local noundef range(i32 -1, 1) i32 @_ZN24btInverseDynamicsBullet313MultiBodyTree24calculateInverseDynamicsERKNS_4vecxES3_S3_PS1_(ptr noundef nonnull readonly align 8 captures(none) dereferenceable(24) %0, ptr noundef nonnull align 8 dereferenceable(32) %1, ptr noundef nonnull align 8 dereferenceable(32) %2, ptr noundef nonnull align 8 dereferenceable(32) %3, ptr noundef %4) local_unnamed_addr #0 align 2 {
  %6 = load i8, ptr %0, align 8, !tbaa !4, !range !21, !noundef !22
  %7 = icmp eq i8 %6, 0
  br i1 %7, label %.sink.split, label %8

8:                                                ; preds = %5
  %9 = getelementptr inbounds nuw i8, ptr %0, i64 8
  %10 = load ptr, ptr %9, align 8, !tbaa !15
  %11 = tail call noundef i32 @_ZN24btInverseDynamicsBullet313MultiBodyTree13MultiBodyImpl24calculateInverseDynamicsERKNS_4vecxES4_S4_PS2_(ptr noundef nonnull align 8 dereferenceable(400) %10, ptr noundef nonnull align 8 dereferenceable(32) %1, ptr noundef nonnull align 8 dereferenceable(32) %2, ptr noundef nonnull align 8 dereferenceable(32) %3, ptr noundef %4)
  %12 = icmp eq i32 %11, -1
  br i1 %12, label %.sink.split, label %13

.sink.split:                                      ; preds = %8, %5
  %.sink = phi i32 [ 103, %5 ], [ 108, %8 ]
  %.str.3.sink = phi ptr [ @.str.2, %5 ], [ @.str.3, %8 ]
  tail call void (ptr, ...) @b3OutputErrorMessageVarArgsInternal(ptr noundef nonnull @.str, ptr noundef nonnull @.str.1, i32 noundef %.sink)
  tail call void (ptr, ...) @b3OutputErrorMessageVarArgsInternal(ptr noundef nonnull %.str.3.sink)
  br label %13

13:                                               ; preds = %.sink.split, %8
  %.0 = phi i32 [ 0, %8 ], [ -1, %.sink.split ]
  ret i32 %.0
}